target datalayout = "e-m:e-p270:32:32-p271:32:32-p272:64:64-i64:64-i128:128-f80:128-n8:16:32:64-S128"
target triple = "x86_64-pc-linux-gnu"

%struct.DHT = type { i32, i32, ptr, [3 x i16], [3 x float], ptr, ptr }

; Function Attrs: mustprogress nounwind uwtable
define void @_ZN3DHTD2Ev(ptr noundef nonnull align 8 dereferenceable(56) %0) unnamed_addr #5 align 2 {
  %2 = alloca ptr, align 8
  store ptr %0, ptr %2, align 8, !tbaa !6
  %3 = load ptr, ptr %2, align 8
  %4 = getelementptr inbounds nuw %struct.DHT, ptr %3, i32 0, i32 2
  %5 = load ptr, ptr %4, align 8, !tbaa !80
  call void @free(ptr noundef %5) #11
  %6 = getelementptr inbounds nuw %struct.DHT, ptr %3, i32 0, i32 6
  %7 = load ptr, ptr %6, align 8, !tbaa !82
  call void @free(ptr noundef %7) #11
  ret void
}