; Function Attrs: mustprogress nounwind willreturn uwtable
define void @_ZN3DHTD2Ev(ptr noundef nonnull readonly align 8 captures(none) dereferenceable(56) %0) unnamed_addr #6 align 2 {
  %2 = getelementptr inbounds nuw i8, ptr %0, i64 8
  %3 = load ptr, ptr %2, align 8, !tbaa !77
  tail call void @free(ptr noundef %3) #12
  %4 = getelementptr inbounds nuw i8, ptr %0, i64 48
  %5 = load ptr, ptr %4, align 8, !tbaa !78
  tail call void @free(ptr noundef %5) #12
  ret void
}